; ModuleID = 'source-C-CXX/2/1847.c'
source_filename = "source-C-CXX/2/1847.c"
target datalayout = "e-m:e-p270:32:32-p271:32:32-p272:64:64-i64:64-f80:128-n8:16:32:64-S128"
target triple = "x86_64-pc-linux-gnu"

@.str = private unnamed_addr constant [6 x i8] c"%d %d\00", align 1
@.str.1 = private unnamed_addr constant [4 x i8] c"%d \00", align 1
@.str.2 = private unnamed_addr constant [3 x i8] c"%d\00", align 1
@.str.3 = private unnamed_addr constant [4 x i8] c"yes\00", align 1
@.str.4 = private unnamed_addr constant [3 x i8] c"no\00", align 1

; Function Attrs: nofree nounwind sspstrong uwtable
define dso_local i32 @main() local_unnamed_addr #0 {
  %1 = alloca i32, align 4
  %2 = alloca i32, align 4
  %3 = alloca [1000 x i32], align 16
  %4 = bitcast i32* %1 to i8*
  call void @llvm.lifetime.start.p0i8(i64 4, i8* nonnull %4) #3
  %5 = bitcast i32* %2 to i8*
  call void @llvm.lifetime.start.p0i8(i64 4, i8* nonnull %5) #3
  %6 = call i32 (i8*, ...) @__isoc99_scanf(i8* getelementptr inbounds ([6 x i8], [6 x i8]* @.str, i64 0, i64 0), i32* nonnull %1, i32* nonnull %2)
  %7 = bitcast [1000 x i32]* %3 to i8*
  call void @llvm.lifetime.start.p0i8(i64 4000, i8* nonnull %7) #3
  %8 = load i32, i32* %1, align 4, !tbaa !5
  %9 = icmp sgt i32 %8, 1
  br i1 %9, label %13, label %10

10:                                               ; preds = %0
  %11 = add nsw i32 %8, -1
  %12 = sext i32 %11 to i64
  br label %22

13:                                               ; preds = %0, %13
  %14 = phi i64 [ %17, %13 ], [ 0, %0 ]
  %15 = getelementptr inbounds [1000 x i32], [1000 x i32]* %3, i64 0, i64 %14
  %16 = call i32 (i8*, ...) @__isoc99_scanf(i8* getelementptr inbounds ([4 x i8], [4 x i8]* @.str.1, i64 0, i64 0), i32* nonnull %15)
  %17 = add nuw nsw i64 %14, 1
  %18 = load i32, i32* %1, align 4, !tbaa !5
  %19 = add nsw i32 %18, -1
  %20 = sext i32 %19 to i64
  %21 = icmp slt i64 %17, %20
  br i1 %21, label %13, label %22, !llvm.loop !9

22:                                               ; preds = %13, %10
  %23 = phi i64 [ %12, %10 ], [ %20, %13 ]
  %24 = getelementptr inbounds [1000 x i32], [1000 x i32]* %3, i64 0, i64 %23
  %25 = call i32 (i8*, ...) @__isoc99_scanf(i8* getelementptr inbounds ([3 x i8], [3 x i8]* @.str.2, i64 0, i64 0), i32* nonnull %24)
  %26 = load i32, i32* %1, align 4, !tbaa !5
  %27 = load i32, i32* %2, align 4
  %28 = icmp sgt i32 %26, 0
  br i1 %28, label %29, label %52

29:                                               ; preds = %22
  %30 = zext i32 %26 to i64
  %31 = zext i32 %26 to i64
  br label %35

32:                                               ; preds = %43, %35
  %33 = add nuw nsw i64 %37, 1
  %34 = icmp eq i64 %38, %31
  br i1 %34, label %52, label %35, !llvm.loop !11

35:                                               ; preds = %29, %32
  %36 = phi i64 [ 0, %29 ], [ %38, %32 ]
  %37 = phi i64 [ 1, %29 ], [ %33, %32 ]
  %38 = add nuw nsw i64 %36, 1
  %39 = icmp ult i64 %38, %30
  br i1 %39, label %40, label %32

40:                                               ; preds = %35
  %41 = getelementptr inbounds [1000 x i32], [1000 x i32]* %3, i64 0, i64 %36
  %42 = load i32, i32* %41, align 4, !tbaa !5
  br label %45

43:                                               ; preds = %45
  %44 = icmp eq i64 %51, %31
  br i1 %44, label %32, label %45, !llvm.loop !12

45:                                               ; preds = %40, %43
  %46 = phi i64 [ %37, %40 ], [ %51, %43 ]
  %47 = getelementptr inbounds [1000 x i32], [1000 x i32]* %3, i64 0, i64 %46
  %48 = load i32, i32* %47, align 4, !tbaa !5
  %49 = add nsw i32 %48, %42
  %50 = icmp eq i32 %49, %27
  %51 = add nuw nsw i64 %46, 1
  br i1 %50, label %52, label %43

52:                                               ; preds = %32, %45, %22
  %53 = phi i8* [ getelementptr inbounds ([3 x i8], [3 x i8]* @.str.4, i64 0, i64 0), %22 ], [ getelementptr inbounds ([4 x i8], [4 x i8]* @.str.3, i64 0, i64 0), %45 ], [ getelementptr inbounds ([3 x i8], [3 x i8]* @.str.4, i64 0, i64 0), %32 ]
  %54 = call i32 (i8*, ...) @printf(i8* nonnull dereferenceable(1) %53)
  call void @llvm.lifetime.end.p0i8(i64 4000, i8* nonnull %7) #3
  call void @llvm.lifetime.end.p0i8(i64 4, i8* nonnull %5) #3
  call void @llvm.lifetime.end.p0i8(i64 4, i8* nonnull %4) #3
  ret i32 0
}

; Function Attrs: argmemonly mustprogress nofree nosync nounwind willreturn
declare void @llvm.lifetime.start.p0i8(i64 immarg, i8* nocapture) #1

; Function Attrs: nofree nounwind
declare noundef i32 @__isoc99_scanf(i8* nocapture noundef readonly, ...) local_unnamed_addr #2

; Function Attrs: nofree nounwind
declare noundef i32 @printf(i8* nocapture noundef readonly, ...) local_unnamed_addr #2

; Function Attrs: argmemonly mustprogress nofree nosync nounwind willreturn
declare void @llvm.lifetime.end.p0i8(i64 immarg, i8* nocapture) #1


!llvm.module.flags = !{!0, !1, !2, !3}
!llvm.ident = !{!4}

!0 = !{i32 1, !"wchar_size", i32 4}
!1 = !{i32 7, !"PIC Level", i32 2}
!2 = !{i32 7, !"PIE Level", i32 2}
!3 = !{i32 7, !"uwtable", i32 1}
!4 = !{!"clang version 13.0.0"}
!5 = !{!6, !6, i64 0}
!6 = !{!"int", !7, i64 0}
!7 = !{!"omnipotent char", !8, i64 0}
!8 = !{!"Simple C/C++ TBAA"}
!9 = distinct !{!9, !10}
!10 = !{!"llvm.loop.mustprogress"}
!11 = distinct !{!11, !10}
!12 = distinct !{!12, !10}
